
main.elf:     file format elf32-littleriscv


Disassembly of section .text:

00000000 <__crt0_entry>:
   0:	30005073          	csrwi	mstatus,0

00000004 <__crt0_cpu_csr_init>:
   4:	30401073          	csrw	mie,zero
   8:	00000097          	auipc	ra,0x0
   c:	0ec08093          	addi	ra,ra,236 # f4 <__crt0_trap_handler>
  10:	30509073          	csrw	mtvec,ra

00000014 <__crt0_pointer_init>:
  14:	80002117          	auipc	sp,0x80002
  18:	fe810113          	addi	sp,sp,-24 # 80001ffc <__crt0_stack_begin+0x0>
  1c:	80000197          	auipc	gp,0x80000
  20:	7e418193          	addi	gp,gp,2020 # 80000800 <__crt0_stack_begin+0xffffe804>

00000024 <__crt0_reg_file_init>:
  24:	00000213          	li	tp,0
  28:	00000293          	li	t0,0
  2c:	00000313          	li	t1,0
  30:	00000393          	li	t2,0
  34:	00000413          	li	s0,0
  38:	00000493          	li	s1,0
  3c:	00000813          	li	a6,0
  40:	00000893          	li	a7,0
  44:	00000913          	li	s2,0
  48:	00000993          	li	s3,0
  4c:	00000a13          	li	s4,0
  50:	00000a93          	li	s5,0
  54:	00000b13          	li	s6,0
  58:	00000b93          	li	s7,0
  5c:	00000c13          	li	s8,0
  60:	00000c93          	li	s9,0
  64:	00000d13          	li	s10,0
  68:	00000d93          	li	s11,0
  6c:	00000e13          	li	t3,0
  70:	00000e93          	li	t4,0
  74:	00000f13          	li	t5,0
  78:	00000f93          	li	t6,0

0000007c <__crt0_copy_data>:
  7c:	16800593          	li	a1,360
  80:	80000617          	auipc	a2,0x80000
  84:	f8060613          	addi	a2,a2,-128 # 80000000 <__crt0_stack_begin+0xffffe004>
  88:	80000697          	auipc	a3,0x80000
  8c:	f7868693          	addi	a3,a3,-136 # 80000000 <__crt0_stack_begin+0xffffe004>
  90:	00c58e63          	beq	a1,a2,ac <__crt0_clear_bss>

00000094 <__crt0_copy_data_loop>:
  94:	00d65c63          	bge	a2,a3,ac <__crt0_clear_bss>
  98:	0005a703          	lw	a4,0(a1)
  9c:	00e62023          	sw	a4,0(a2)
  a0:	00458593          	addi	a1,a1,4
  a4:	00460613          	addi	a2,a2,4
  a8:	fedff06f          	j	94 <__crt0_copy_data_loop>

000000ac <__crt0_clear_bss>:
  ac:	80000717          	auipc	a4,0x80000
  b0:	f5470713          	addi	a4,a4,-172 # 80000000 <__crt0_stack_begin+0xffffe004>
  b4:	80000797          	auipc	a5,0x80000
  b8:	f4c78793          	addi	a5,a5,-180 # 80000000 <__crt0_stack_begin+0xffffe004>

000000bc <__crt0_clear_bss_loop>:
  bc:	00f75863          	bge	a4,a5,cc <__crt0_clear_bss_loop_end>
  c0:	00072023          	sw	zero,0(a4)
  c4:	00470713          	addi	a4,a4,4
  c8:	ff5ff06f          	j	bc <__crt0_clear_bss_loop>

000000cc <__crt0_clear_bss_loop_end>:
  cc:	00000513          	li	a0,0
  d0:	00000593          	li	a1,0
  d4:	06c000ef          	jal	ra,140 <main>

000000d8 <__crt0_main_exit>:
  d8:	30401073          	csrw	mie,zero
  dc:	34051073          	csrw	mscratch,a0

000000e0 <__crt0_main_aftermath>:
  e0:	00000093          	li	ra,0
  e4:	00008463          	beqz	ra,ec <__crt0_main_aftermath_end>
  e8:	000080e7          	jalr	ra

000000ec <__crt0_main_aftermath_end>:
  ec:	10500073          	wfi
  f0:	ffdff06f          	j	ec <__crt0_main_aftermath_end>

000000f4 <__crt0_trap_handler>:
  f4:	ff810113          	addi	sp,sp,-8
  f8:	00812023          	sw	s0,0(sp)
  fc:	00912223          	sw	s1,4(sp)
 100:	34202473          	csrr	s0,mcause
 104:	02044663          	bltz	s0,130 <__crt0_trap_handler_end>
 108:	34102473          	csrr	s0,mepc
 10c:	00041483          	lh	s1,0(s0)
 110:	0034f493          	andi	s1,s1,3
 114:	00240413          	addi	s0,s0,2
 118:	34141073          	csrw	mepc,s0
 11c:	00300413          	li	s0,3
 120:	00941863          	bne	s0,s1,130 <__crt0_trap_handler_end>
 124:	34102473          	csrr	s0,mepc
 128:	00240413          	addi	s0,s0,2
 12c:	34141073          	csrw	mepc,s0

00000130 <__crt0_trap_handler_end>:
 130:	00012403          	lw	s0,0(sp)
 134:	00412483          	lw	s1,4(sp)
 138:	00810113          	addi	sp,sp,8
 13c:	30200073          	mret

00000140 <main>:
.balign 4
.global main


main:
	li	a5,136
 140:	08800793          	li	a5,136
	csrw	mstatus,a5
 144:	30079073          	csrw	mstatus,a5
	jal 	ra, goto_user_mode
 148:	00c000ef          	jal	ra,154 <goto_user_mode>
	csrw 	mstatus, a5
 14c:	30079073          	csrw	mstatus,a5
	add 	a5, a5, 1
 150:	00178793          	addi	a5,a5,1

00000154 <goto_user_mode>:

goto_user_mode:
	csrw	mepc,ra
 154:	34109073          	csrw	mepc,ra
	lui	ra,0x2
 158:	000020b7          	lui	ra,0x2
	addi	ra,ra,-2048
 15c:	80008093          	addi	ra,ra,-2048 # 1800 <__etext+0x1698>
	csrc	mstatus,ra
 160:	3000b073          	csrc	mstatus,ra
	mret
 164:	30200073          	mret
