
main.elf:     file format elf32-littleriscv


Disassembly of section .text:

00000000 <__crt0_entry>:
   0:	30005073          	csrwi	mstatus,0

00000004 <__crt0_cpu_csr_init>:
   4:	30401073          	csrw	mie,zero

00000008 <__crt0_pointer_init>:
   8:	80002117          	auipc	sp,0x80002
   c:	ff410113          	addi	sp,sp,-12 # 80001ffc <__crt0_stack_begin+0x0>
  10:	80000197          	auipc	gp,0x80000
  14:	7f018193          	addi	gp,gp,2032 # 80000800 <__crt0_stack_begin+0xffffe804>

00000018 <__crt0_reg_file_init>:
  18:	00000213          	li	tp,0
  1c:	00000293          	li	t0,0
  20:	00000313          	li	t1,0
  24:	00000393          	li	t2,0
  28:	00000413          	li	s0,0
  2c:	00000493          	li	s1,0
  30:	00000813          	li	a6,0
  34:	00000893          	li	a7,0
  38:	00000913          	li	s2,0
  3c:	00000993          	li	s3,0
  40:	00000a13          	li	s4,0
  44:	00000a93          	li	s5,0
  48:	00000b13          	li	s6,0
  4c:	00000b93          	li	s7,0
  50:	00000c13          	li	s8,0
  54:	00000c93          	li	s9,0
  58:	00000d13          	li	s10,0
  5c:	00000d93          	li	s11,0
  60:	00000e13          	li	t3,0
  64:	00000e93          	li	t4,0
  68:	00000f13          	li	t5,0
  6c:	00000f93          	li	t6,0

00000070 <__crt0_copy_data>:
  70:	15c00593          	li	a1,348
  74:	80000617          	auipc	a2,0x80000
  78:	f8c60613          	addi	a2,a2,-116 # 80000000 <__crt0_stack_begin+0xffffe004>
  7c:	80000697          	auipc	a3,0x80000
  80:	f8468693          	addi	a3,a3,-124 # 80000000 <__crt0_stack_begin+0xffffe004>
  84:	00c58e63          	beq	a1,a2,a0 <__crt0_clear_bss>

00000088 <__crt0_copy_data_loop>:
  88:	00d65c63          	bge	a2,a3,a0 <__crt0_clear_bss>
  8c:	0005a703          	lw	a4,0(a1)
  90:	00e62023          	sw	a4,0(a2)
  94:	00458593          	addi	a1,a1,4
  98:	00460613          	addi	a2,a2,4
  9c:	fedff06f          	j	88 <__crt0_copy_data_loop>

000000a0 <__crt0_clear_bss>:
  a0:	80000717          	auipc	a4,0x80000
  a4:	f6070713          	addi	a4,a4,-160 # 80000000 <__crt0_stack_begin+0xffffe004>
  a8:	80000797          	auipc	a5,0x80000
  ac:	f5878793          	addi	a5,a5,-168 # 80000000 <__crt0_stack_begin+0xffffe004>

000000b0 <__crt0_clear_bss_loop>:
  b0:	00f75863          	bge	a4,a5,c0 <__crt0_clear_bss_loop_end>
  b4:	00072023          	sw	zero,0(a4)
  b8:	00470713          	addi	a4,a4,4
  bc:	ff5ff06f          	j	b0 <__crt0_clear_bss_loop>

000000c0 <__crt0_clear_bss_loop_end>:
  c0:	00000513          	li	a0,0
  c4:	00000593          	li	a1,0
  c8:	06c000ef          	jal	ra,134 <main>

000000cc <__crt0_main_exit>:
  cc:	30401073          	csrw	mie,zero
  d0:	34051073          	csrw	mscratch,a0

000000d4 <__crt0_main_aftermath>:
  d4:	00000093          	li	ra,0
  d8:	00008463          	beqz	ra,e0 <__crt0_main_aftermath_end>
  dc:	000080e7          	jalr	ra

000000e0 <__crt0_main_aftermath_end>:
  e0:	10500073          	wfi
  e4:	ffdff06f          	j	e0 <__crt0_main_aftermath_end>

000000e8 <__crt0_trap_handler>:
  e8:	ff810113          	addi	sp,sp,-8
  ec:	00812023          	sw	s0,0(sp)
  f0:	00912223          	sw	s1,4(sp)
  f4:	34202473          	csrr	s0,mcause
  f8:	02044663          	bltz	s0,124 <__crt0_trap_handler_end>
  fc:	34102473          	csrr	s0,mepc
 100:	00041483          	lh	s1,0(s0)
 104:	0034f493          	andi	s1,s1,3
 108:	00240413          	addi	s0,s0,2
 10c:	34141073          	csrw	mepc,s0
 110:	00300413          	li	s0,3
 114:	00941863          	bne	s0,s1,124 <__crt0_trap_handler_end>
 118:	34102473          	csrr	s0,mepc
 11c:	00240413          	addi	s0,s0,2
 120:	34141073          	csrw	mepc,s0

00000124 <__crt0_trap_handler_end>:
 124:	00012403          	lw	s0,0(sp)
 128:	00412483          	lw	s1,4(sp)
 12c:	00810113          	addi	sp,sp,8
 130:	30200073          	mret

00000134 <main>:
.balign 4
.global main


main:
	li	a5,136
 134:	08800793          	li	a5,136
	csrw	mstatus,a5
 138:	30079073          	csrw	mstatus,a5
	jal 	ra, goto_user_mode
 13c:	00c000ef          	jal	ra,148 <goto_user_mode>
	csrw 	mstatus, a5
 140:	30079073          	csrw	mstatus,a5
	add 	a5, a5, 1
 144:	00178793          	addi	a5,a5,1

00000148 <goto_user_mode>:

goto_user_mode:
	csrw	mepc,ra
 148:	34109073          	csrw	mepc,ra
	lui	ra,0x2
 14c:	000020b7          	lui	ra,0x2
	addi	ra,ra,-2048
 150:	80008093          	addi	ra,ra,-2048 # 1800 <__etext+0x16a4>
	csrc	mstatus,ra
 154:	3000b073          	csrc	mstatus,ra
	mret
 158:	30200073          	mret
